; Function Attrs: nounwind uwtable
define hidden ptr @_mi_page_malloc(ptr noundef %0, ptr noundef captures(none) %1, i64 noundef %2) local_unnamed_addr #3 {
  %4 = getelementptr inbounds nuw i8, ptr %1, i64 16
  %5 = load ptr, ptr %4, align 8, !tbaa !11
  %6 = icmp eq ptr %5, null
  br i1 %6, label %7, label %9, !prof !18

7:                                                ; preds = %3
  %8 = tail call noalias ptr @_mi_malloc_generic(ptr noundef %0, i64 noundef %2, i1 noundef zeroext false, i64 noundef 0) #19
  br label %_mi_page_malloc_zero.exit

9:                                                ; preds = %3
  %.val.i = load i64, ptr %5, align 8, !tbaa !19
  %10 = inttoptr i64 %.val.i to ptr
  store ptr %10, ptr %4, align 8, !tbaa !11
  %11 = getelementptr inbounds nuw i8, ptr %1, i64 32
  %12 = load i16, ptr %11, align 8, !tbaa !21
  %13 = add i16 %12, 1
  store i16 %13, ptr %11, align 8, !tbaa !21
  br label %_mi_page_malloc_zero.exit

_mi_page_malloc_zero.exit:                        ; preds = %7, %9
  %.0.i = phi ptr [ %8, %7 ], [ %5, %9 ]
  ret ptr %.0.i
}